target datalayout = "e-m:e-p270:32:32-p271:32:32-p272:64:64-i64:64-i128:128-f80:128-n8:16:32:64-S128"
target triple = "x86_64-pc-linux-gnu"

%struct.luaL_Reg = type { ptr, ptr }

; Function Attrs: nounwind uwtable
define internal i32 @libsize(ptr noundef %0) #0 {
  %2 = alloca ptr, align 8
  %3 = alloca i32, align 4
  store ptr %0, ptr %2, align 8, !tbaa !47
  call void @llvm.lifetime.start.p0(i64 4, ptr %3) #9
  store i32 0, ptr %3, align 4, !tbaa !9
  br label %4

4:                                                ; preds = %17, %1
  %5 = load ptr, ptr %2, align 8, !tbaa !47
  %6 = icmp ne ptr %5, null
  br i1 %6, label %7, label %12

7:                                                ; preds = %4
  %8 = load ptr, ptr %2, align 8, !tbaa !47
  %9 = getelementptr inbounds nuw %struct.luaL_Reg, ptr %8, i32 0, i32 0
  %10 = load ptr, ptr %9, align 8, !tbaa !49
  %11 = icmp ne ptr %10, null
  br label %12

12:                                               ; preds = %7, %4
  %13 = phi i1 [ false, %4 ], [ %11, %7 ]
  br i1 %13, label %14, label %20

14:                                               ; preds = %12
  %15 = load i32, ptr %3, align 4, !tbaa !9
  %16 = add nsw i32 %15, 1
  store i32 %16, ptr %3, align 4, !tbaa !9
  br label %17

17:                                               ; preds = %14
  %18 = load ptr, ptr %2, align 8, !tbaa !47
  %19 = getelementptr inbounds nuw %struct.luaL_Reg, ptr %18, i32 1
  store ptr %19, ptr %2, align 8, !tbaa !47
  br label %4, !llvm.loop !51

20:                                               ; preds = %12
  %21 = load i32, ptr %3, align 4, !tbaa !9
  call void @llvm.lifetime.end.p0(i64 4, ptr %3) #9
  ret i32 %21
}

; Function Attrs: nounwind uwtable
define dso_local void @luaL_openlib(ptr noundef %0, ptr noundef %1, ptr noundef %2, i32 noundef %3) #0 {
  %5 = alloca ptr, align 8
  %6 = alloca ptr, align 8
  %7 = alloca ptr, align 8
  %8 = alloca i32, align 4
  store ptr %0, ptr %5, align 8, !tbaa !4
  store ptr %1, ptr %6, align 8, !tbaa !11
  store ptr %2, ptr %7, align 8, !tbaa !47
  store i32 %3, ptr %8, align 4, !tbaa !9
  %9 = load ptr, ptr %6, align 8, !tbaa !11
  %10 = icmp ne ptr %9, null
  br i1 %10, label %11, label %20

11:                                               ; preds = %4
  %12 = load ptr, ptr %5, align 8, !tbaa !4
  %13 = load ptr, ptr %6, align 8, !tbaa !11
  %14 = load ptr, ptr %7, align 8, !tbaa !47
  %15 = call i32 @libsize(ptr noundef %14)
  call void @luaL_pushmodule(ptr noundef %12, ptr noundef %13, i32 noundef %15)
  %16 = load ptr, ptr %5, align 8, !tbaa !4
  %17 = load i32, ptr %8, align 4, !tbaa !9
  %18 = add nsw i32 %17, 1
  %19 = sub nsw i32 0, %18
  call void @lua_insert(ptr noundef %16, i32 noundef %19)
  br label %20

20:                                               ; preds = %11, %4
  %21 = load ptr, ptr %7, align 8, !tbaa !47
  %22 = icmp ne ptr %21, null
  br i1 %22, label %23, label %27

23:                                               ; preds = %20
  %24 = load ptr, ptr %5, align 8, !tbaa !4
  %25 = load ptr, ptr %7, align 8, !tbaa !47
  %26 = load i32, ptr %8, align 4, !tbaa !9
  call void @luaL_setfuncs(ptr noundef %24, ptr noundef %25, i32 noundef %26)
  br label %32

27:                                               ; preds = %20
  %28 = load ptr, ptr %5, align 8, !tbaa !4
  %29 = load i32, ptr %8, align 4, !tbaa !9
  %30 = sub nsw i32 0, %29
  %31 = sub nsw i32 %30, 1
  call void @lua_settop(ptr noundef %28, i32 noundef %31)
  br label %32

32:                                               ; preds = %27, %23
  ret void
}