; Function Attrs: nounwind uwtable
define dso_local void @luaL_openlib(ptr noundef %0, ptr noundef %1, ptr noundef readonly captures(address_is_null) %2, i32 noundef %3) local_unnamed_addr #0 {
  %.not = icmp eq ptr %1, null
  br i1 %.not, label %11, label %5

5:                                                ; preds = %4
  %.not6.i = icmp eq ptr %2, null
  br i1 %.not6.i, label %libsize.exit, label %.lr.ph.i.preheader

.lr.ph.i.preheader:                               ; preds = %5
  %6 = load ptr, ptr %2, align 8, !tbaa !44
  %.not5.i13 = icmp eq ptr %6, null
  br i1 %.not5.i13, label %libsize.exit, label %.lr.ph.i

.lr.ph.i:                                         ; preds = %.lr.ph.i.preheader, %.lr.ph.i
  %.047.i15 = phi ptr [ %8, %.lr.ph.i ], [ %2, %.lr.ph.i.preheader ]
  %.08.i14 = phi i32 [ %7, %.lr.ph.i ], [ 0, %.lr.ph.i.preheader ]
  %7 = add nuw nsw i32 %.08.i14, 1
  %8 = getelementptr inbounds nuw i8, ptr %.047.i15, i64 16
  %9 = load ptr, ptr %8, align 8, !tbaa !44
  %.not5.i = icmp eq ptr %9, null
  br i1 %.not5.i, label %libsize.exit, label %.lr.ph.i

libsize.exit:                                     ; preds = %.lr.ph.i, %.lr.ph.i.preheader, %5
  %.0.lcssa.i = phi i32 [ 0, %5 ], [ 0, %.lr.ph.i.preheader ], [ %7, %.lr.ph.i ]
  tail call void @luaL_pushmodule(ptr noundef %0, ptr noundef nonnull %1, i32 noundef %.0.lcssa.i)
  %10 = xor i32 %3, -1
  tail call void @lua_insert(ptr noundef %0, i32 noundef %10) #13
  br label %11

11:                                               ; preds = %libsize.exit, %4
  %.not12 = icmp eq ptr %2, null
  br i1 %.not12, label %13, label %12

12:                                               ; preds = %11
  tail call void @luaL_setfuncs(ptr noundef %0, ptr noundef nonnull %2, i32 noundef %3)
  br label %15

13:                                               ; preds = %11
  %14 = xor i32 %3, -1
  tail call void @lua_settop(ptr noundef %0, i32 noundef %14) #13
  br label %15

15:                                               ; preds = %13, %12
  ret void
}